target datalayout = "e-m:e-p270:32:32-p271:32:32-p272:64:64-i64:64-i128:128-f80:128-n8:16:32:64-S128"
target triple = "x86_64-pc-linux-gnu"

%struct.jpeg_decompress_struct = type { ptr, ptr, ptr, ptr, i32, i32, ptr, i32, i32, i32, i32, i32, i32, i32, double, i32, i32, i32, i32, i32, i32, i32, i32, i32, i32, i32, i32, i32, i32, i32, i32, i32, i32, ptr, i32, i32, i32, i32, i32, ptr, [4 x ptr], [4 x ptr], [4 x ptr], i32, ptr, i32, i32, [16 x i8], [16 x i8], [16 x i8], i32, i32, i8, i8, i8, i16, i16, i32, i8, i32, ptr, i32, i32, i32, i32, ptr, i32, [4 x ptr], i32, i32, i32, [10 x i32], i32, i32, i32, i32, i32, ptr, ptr, ptr, ptr, ptr, ptr, ptr, ptr, ptr, ptr, ptr }
%struct.jpeg_error_mgr = type { ptr, ptr, ptr, ptr, ptr, i32, %union.anon, i32, i64, ptr, i32, ptr, i32, i32 }
%union.anon = type { [8 x i32], [48 x i8] }
%struct.jpeg_memory_mgr = type { ptr, ptr, ptr, ptr, ptr, ptr, ptr, ptr, ptr, ptr, ptr, i64, i64 }
%struct.my_idct_controller = type { %struct.jpeg_inverse_dct, [10 x i32] }
%struct.jpeg_inverse_dct = type { ptr, [10 x ptr], [10 x ptr] }
%struct.jpeg_component_info = type { i32, i32, i32, i32, i32, i32, i32, i32, i32, i32, i32, i32, i32, i32, i32, i32, i32, i32, i32, ptr, ptr }

; Function Attrs: nounwind uwtable
define void @jinit_inverse_dct(ptr noundef %0) #0 {
  %2 = alloca ptr, align 8
  %3 = alloca ptr, align 8
  %4 = alloca i32, align 4
  %5 = alloca ptr, align 8
  store ptr %0, ptr %2, align 8, !tbaa !3
  call void @llvm.lifetime.start.p0(i64 8, ptr %3) #4
  call void @llvm.lifetime.start.p0(i64 4, ptr %4) #4
  call void @llvm.lifetime.start.p0(i64 8, ptr %5) #4
  %6 = load ptr, ptr %2, align 8, !tbaa !3
  %7 = getelementptr inbounds nuw %struct.jpeg_decompress_struct, ptr %6, i32 0, i32 43
  %8 = load i32, ptr %7, align 8, !tbaa !8
  %9 = icmp ne i32 %8, 8
  br i1 %9, label %10, label %29

10:                                               ; preds = %1
  %11 = load ptr, ptr %2, align 8, !tbaa !3
  %12 = getelementptr inbounds nuw %struct.jpeg_decompress_struct, ptr %11, i32 0, i32 0
  %13 = load ptr, ptr %12, align 8, !tbaa !32
  %14 = getelementptr inbounds nuw %struct.jpeg_error_mgr, ptr %13, i32 0, i32 5
  store i32 15, ptr %14, align 8, !tbaa !33
  %15 = load ptr, ptr %2, align 8, !tbaa !3
  %16 = getelementptr inbounds nuw %struct.jpeg_decompress_struct, ptr %15, i32 0, i32 43
  %17 = load i32, ptr %16, align 8, !tbaa !8
  %18 = load ptr, ptr %2, align 8, !tbaa !3
  %19 = getelementptr inbounds nuw %struct.jpeg_decompress_struct, ptr %18, i32 0, i32 0
  %20 = load ptr, ptr %19, align 8, !tbaa !32
  %21 = getelementptr inbounds nuw %struct.jpeg_error_mgr, ptr %20, i32 0, i32 6
  %22 = getelementptr inbounds [8 x i32], ptr %21, i64 0, i64 0
  store i32 %17, ptr %22, align 4, !tbaa !36
  %23 = load ptr, ptr %2, align 8, !tbaa !3
  %24 = getelementptr inbounds nuw %struct.jpeg_decompress_struct, ptr %23, i32 0, i32 0
  %25 = load ptr, ptr %24, align 8, !tbaa !32
  %26 = getelementptr inbounds nuw %struct.jpeg_error_mgr, ptr %25, i32 0, i32 0
  %27 = load ptr, ptr %26, align 8, !tbaa !37
  %28 = load ptr, ptr %2, align 8, !tbaa !3
  call void %27(ptr noundef %28)
  br label %29

29:                                               ; preds = %10, %1
  %30 = load ptr, ptr %2, align 8, !tbaa !3
  %31 = getelementptr inbounds nuw %struct.jpeg_decompress_struct, ptr %30, i32 0, i32 1
  %32 = load ptr, ptr %31, align 8, !tbaa !38
  %33 = getelementptr inbounds nuw %struct.jpeg_memory_mgr, ptr %32, i32 0, i32 0
  %34 = load ptr, ptr %33, align 8, !tbaa !39
  %35 = load ptr, ptr %2, align 8, !tbaa !3
  %36 = call ptr %34(ptr noundef %35, i32 noundef 1, i64 noundef 208)
  store ptr %36, ptr %3, align 8, !tbaa !41
  %37 = load ptr, ptr %3, align 8, !tbaa !41
  %38 = load ptr, ptr %2, align 8, !tbaa !3
  %39 = getelementptr inbounds nuw %struct.jpeg_decompress_struct, ptr %38, i32 0, i32 84
  store ptr %37, ptr %39, align 8, !tbaa !42
  %40 = load ptr, ptr %3, align 8, !tbaa !41
  %41 = getelementptr inbounds nuw %struct.my_idct_controller, ptr %40, i32 0, i32 0
  %42 = getelementptr inbounds nuw %struct.jpeg_inverse_dct, ptr %41, i32 0, i32 0
  store ptr @start_pass, ptr %42, align 8, !tbaa !43
  store i32 0, ptr %4, align 4, !tbaa !46
  %43 = load ptr, ptr %2, align 8, !tbaa !3
  %44 = getelementptr inbounds nuw %struct.jpeg_decompress_struct, ptr %43, i32 0, i32 44
  %45 = load ptr, ptr %44, align 8, !tbaa !47
  store ptr %45, ptr %5, align 8, !tbaa !41
  br label %46

46:                                               ; preds = %70, %29
  %47 = load i32, ptr %4, align 4, !tbaa !46
  %48 = load ptr, ptr %2, align 8, !tbaa !3
  %49 = getelementptr inbounds nuw %struct.jpeg_decompress_struct, ptr %48, i32 0, i32 9
  %50 = load i32, ptr %49, align 8, !tbaa !48
  %51 = icmp slt i32 %47, %50
  br i1 %51, label %52, label %75

52:                                               ; preds = %46
  %53 = load ptr, ptr %2, align 8, !tbaa !3
  %54 = getelementptr inbounds nuw %struct.jpeg_decompress_struct, ptr %53, i32 0, i32 1
  %55 = load ptr, ptr %54, align 8, !tbaa !38
  %56 = getelementptr inbounds nuw %struct.jpeg_memory_mgr, ptr %55, i32 0, i32 0
  %57 = load ptr, ptr %56, align 8, !tbaa !39
  %58 = load ptr, ptr %2, align 8, !tbaa !3
  %59 = call ptr %57(ptr noundef %58, i32 noundef 1, i64 noundef 256)
  %60 = load ptr, ptr %5, align 8, !tbaa !41
  %61 = getelementptr inbounds nuw %struct.jpeg_component_info, ptr %60, i32 0, i32 20
  store ptr %59, ptr %61, align 8, !tbaa !49
  %62 = load ptr, ptr %5, align 8, !tbaa !41
  %63 = getelementptr inbounds nuw %struct.jpeg_component_info, ptr %62, i32 0, i32 20
  %64 = load ptr, ptr %63, align 8, !tbaa !49
  call void @llvm.memset.p0.i64(ptr align 1 %64, i8 0, i64 256, i1 false)
  %65 = load ptr, ptr %3, align 8, !tbaa !41
  %66 = getelementptr inbounds nuw %struct.my_idct_controller, ptr %65, i32 0, i32 1
  %67 = load i32, ptr %4, align 4, !tbaa !46
  %68 = sext i32 %67 to i64
  %69 = getelementptr inbounds [10 x i32], ptr %66, i64 0, i64 %68
  store i32 -1, ptr %69, align 4, !tbaa !46
  br label %70

70:                                               ; preds = %52
  %71 = load i32, ptr %4, align 4, !tbaa !46
  %72 = add nsw i32 %71, 1
  store i32 %72, ptr %4, align 4, !tbaa !46
  %73 = load ptr, ptr %5, align 8, !tbaa !41
  %74 = getelementptr inbounds nuw %struct.jpeg_component_info, ptr %73, i32 1
  store ptr %74, ptr %5, align 8, !tbaa !41
  br label %46, !llvm.loop !51

75:                                               ; preds = %46
  call void @llvm.lifetime.end.p0(i64 8, ptr %5) #4
  call void @llvm.lifetime.end.p0(i64 4, ptr %4) #4
  call void @llvm.lifetime.end.p0(i64 8, ptr %3) #4
  ret void
}