; Function Attrs: nounwind uwtable
define void @jinit_inverse_dct(ptr noundef %0) local_unnamed_addr #0 {
  %2 = getelementptr inbounds nuw i8, ptr %0, i64 296
  %3 = load i32, ptr %2, align 8, !tbaa !3
  %.not = icmp eq i32 %3, 8
  br i1 %.not, label %10, label %4

4:                                                ; preds = %1
  %5 = load ptr, ptr %0, align 8, !tbaa !30
  %6 = getelementptr inbounds nuw i8, ptr %5, i64 40
  store i32 15, ptr %6, align 8, !tbaa !31
  %7 = getelementptr inbounds nuw i8, ptr %5, i64 44
  store i32 %3, ptr %7, align 4, !tbaa !34
  %8 = load ptr, ptr %0, align 8, !tbaa !30
  %9 = load ptr, ptr %8, align 8, !tbaa !35
  tail call void %9(ptr noundef nonnull %0) #3
  br label %10

10:                                               ; preds = %4, %1
  %11 = getelementptr inbounds nuw i8, ptr %0, i64 8
  %12 = load ptr, ptr %11, align 8, !tbaa !36
  %13 = load ptr, ptr %12, align 8, !tbaa !37
  %14 = tail call ptr %13(ptr noundef nonnull %0, i32 noundef 1, i64 noundef 208) #3
  %15 = getelementptr inbounds nuw i8, ptr %0, i64 600
  store ptr %14, ptr %15, align 8, !tbaa !39
  store ptr @start_pass, ptr %14, align 8, !tbaa !40
  %16 = getelementptr inbounds nuw i8, ptr %0, i64 56
  %17 = load i32, ptr %16, align 8, !tbaa !43
  %18 = icmp sgt i32 %17, 0
  br i1 %18, label %.lr.ph, label %._crit_edge

.lr.ph:                                           ; preds = %10
  %19 = getelementptr inbounds nuw i8, ptr %0, i64 304
  %20 = load ptr, ptr %19, align 8, !tbaa !44
  %21 = getelementptr inbounds nuw i8, ptr %14, i64 168
  br label %22

22:                                               ; preds = %.lr.ph, %22
  %indvars.iv = phi i64 [ 0, %.lr.ph ], [ %indvars.iv.next, %22 ]
  %.023 = phi ptr [ %20, %.lr.ph ], [ %28, %22 ]
  %23 = load ptr, ptr %11, align 8, !tbaa !36
  %24 = load ptr, ptr %23, align 8, !tbaa !37
  %25 = tail call ptr %24(ptr noundef nonnull %0, i32 noundef 1, i64 noundef 256) #3
  %26 = getelementptr inbounds nuw i8, ptr %.023, i64 88
  store ptr %25, ptr %26, align 8, !tbaa !45
  tail call void @llvm.memset.p0.i64(ptr noundef nonnull align 1 dereferenceable(256) %25, i8 0, i64 256, i1 false)
  %27 = getelementptr inbounds nuw [10 x i32], ptr %21, i64 0, i64 %indvars.iv
  store i32 -1, ptr %27, align 4, !tbaa !47
  %indvars.iv.next = add nuw nsw i64 %indvars.iv, 1
  %28 = getelementptr inbounds nuw i8, ptr %.023, i64 96
  %29 = load i32, ptr %16, align 8, !tbaa !43
  %30 = sext i32 %29 to i64
  %31 = icmp slt i64 %indvars.iv.next, %30
  br i1 %31, label %22, label %._crit_edge, !llvm.loop !48

._crit_edge:                                      ; preds = %22, %10
  ret void
}